target datalayout = "e-m:e-p270:32:32-p271:32:32-p272:64:64-i64:64-i128:128-f80:128-n8:16:32:64-S128"
target triple = "x86_64-pc-linux-gnu"

@.str.11 = private unnamed_addr constant [37 x i8] c"../openssl/test/rsa_sp800_56b_test.c\00", align 1
@.str.12 = private unnamed_addr constant [13 x i8] c"e = BN_new()\00", align 1
@.str.21 = private unnamed_addr constant [13 x i8] c"p = BN_new()\00", align 1
@.str.22 = private unnamed_addr constant [36 x i8] c"bn_p1 = bn_load_new(p1, sizeof(p1))\00", align 1
@.str.23 = private unnamed_addr constant [36 x i8] c"bn_p2 = bn_load_new(p2, sizeof(p2))\00", align 1
@.str.24 = private unnamed_addr constant [36 x i8] c"bn_p3 = bn_load_new(p3, sizeof(p3))\00", align 1
@.str.26 = private unnamed_addr constant [19 x i8] c"ctx = BN_CTX_new()\00", align 1
@test_check_prime_factor.p1 = internal constant [5 x i8] c"\0BPO3s", align 1
@test_check_prime_factor.p2 = internal constant [5 x i8] c"\0BPO3u", align 1
@test_check_prime_factor.p3 = internal constant [5 x i8] c"\0FP\00\03u", align 1
@.str.37 = private unnamed_addr constant [20 x i8] c"BN_set_word(e, 0x1)\00", align 1
@.str.38 = private unnamed_addr constant [47 x i8] c"ossl_rsa_check_prime_factor(bn_p1, e, 72, ctx)\00", align 1
@.str.39 = private unnamed_addr constant [47 x i8] c"ossl_rsa_check_prime_factor(bn_p2, e, 72, ctx)\00", align 1
@.str.40 = private unnamed_addr constant [20 x i8] c"BN_set_word(e, 0x2)\00", align 1
@.str.41 = private unnamed_addr constant [43 x i8] c"ossl_rsa_check_prime_factor(p, e, 72, ctx)\00", align 1
@.str.42 = private unnamed_addr constant [47 x i8] c"ossl_rsa_check_prime_factor(bn_p3, e, 72, ctx)\00", align 1

; Function Attrs: nounwind uwtable
define internal ptr @bn_load_new(ptr noundef %0, i32 noundef %1) #0 {
  %3 = alloca ptr, align 8
  %4 = alloca i32, align 4
  %5 = alloca ptr, align 8
  store ptr %0, ptr %3, align 8, !tbaa !36
  store i32 %1, ptr %4, align 4, !tbaa !4
  call void @llvm.lifetime.start.p0(i64 8, ptr %5) #3
  %6 = call ptr @BN_new()
  store ptr %6, ptr %5, align 8, !tbaa !8
  %7 = load ptr, ptr %5, align 8, !tbaa !8
  %8 = icmp ne ptr %7, null
  br i1 %8, label %9, label %14

9:                                                ; preds = %2
  %10 = load ptr, ptr %3, align 8, !tbaa !36
  %11 = load i32, ptr %4, align 4, !tbaa !4
  %12 = load ptr, ptr %5, align 8, !tbaa !8
  %13 = call ptr @BN_bin2bn(ptr noundef %10, i32 noundef %11, ptr noundef %12)
  br label %14

14:                                               ; preds = %9, %2
  %15 = load ptr, ptr %5, align 8, !tbaa !8
  call void @llvm.lifetime.end.p0(i64 8, ptr %5) #3
  ret ptr %15
}

; Function Attrs: nounwind uwtable
define internal i32 @test_check_prime_factor() #0 {
  %1 = alloca i32, align 4
  %2 = alloca ptr, align 8
  %3 = alloca ptr, align 8
  %4 = alloca ptr, align 8
  %5 = alloca ptr, align 8
  %6 = alloca ptr, align 8
  %7 = alloca ptr, align 8
  call void @llvm.lifetime.start.p0(i64 4, ptr %1) #3
  store i32 0, ptr %1, align 4, !tbaa !4
  call void @llvm.lifetime.start.p0(i64 8, ptr %2) #3
  store ptr null, ptr %2, align 8, !tbaa !11
  call void @llvm.lifetime.start.p0(i64 8, ptr %3) #3
  store ptr null, ptr %3, align 8, !tbaa !8
  call void @llvm.lifetime.start.p0(i64 8, ptr %4) #3
  store ptr null, ptr %4, align 8, !tbaa !8
  call void @llvm.lifetime.start.p0(i64 8, ptr %5) #3
  store ptr null, ptr %5, align 8, !tbaa !8
  call void @llvm.lifetime.start.p0(i64 8, ptr %6) #3
  store ptr null, ptr %6, align 8, !tbaa !8
  call void @llvm.lifetime.start.p0(i64 8, ptr %7) #3
  store ptr null, ptr %7, align 8, !tbaa !8
  %8 = call ptr @BN_new()
  store ptr %8, ptr %3, align 8, !tbaa !8
  %9 = call i32 @test_ptr(ptr noundef @.str.11, i32 noundef 193, ptr noundef @.str.21, ptr noundef %8)
  %10 = icmp ne i32 %9, 0
  br i1 %10, label %11, label %88

11:                                               ; preds = %0
  %12 = call ptr @bn_load_new(ptr noundef @test_check_prime_factor.p1, i32 noundef 5)
  store ptr %12, ptr %5, align 8, !tbaa !8
  %13 = call i32 @test_ptr(ptr noundef @.str.11, i32 noundef 194, ptr noundef @.str.22, ptr noundef %12)
  %14 = icmp ne i32 %13, 0
  br i1 %14, label %15, label %88

15:                                               ; preds = %11
  %16 = call ptr @bn_load_new(ptr noundef @test_check_prime_factor.p2, i32 noundef 5)
  store ptr %16, ptr %6, align 8, !tbaa !8
  %17 = call i32 @test_ptr(ptr noundef @.str.11, i32 noundef 195, ptr noundef @.str.23, ptr noundef %16)
  %18 = icmp ne i32 %17, 0
  br i1 %18, label %19, label %88

19:                                               ; preds = %15
  %20 = call ptr @bn_load_new(ptr noundef @test_check_prime_factor.p3, i32 noundef 5)
  store ptr %20, ptr %7, align 8, !tbaa !8
  %21 = call i32 @test_ptr(ptr noundef @.str.11, i32 noundef 196, ptr noundef @.str.24, ptr noundef %20)
  %22 = icmp ne i32 %21, 0
  br i1 %22, label %23, label %88

23:                                               ; preds = %19
  %24 = call ptr @BN_new()
  store ptr %24, ptr %4, align 8, !tbaa !8
  %25 = call i32 @test_ptr(ptr noundef @.str.11, i32 noundef 197, ptr noundef @.str.12, ptr noundef %24)
  %26 = icmp ne i32 %25, 0
  br i1 %26, label %27, label %88

27:                                               ; preds = %23
  %28 = call ptr @BN_CTX_new()
  store ptr %28, ptr %2, align 8, !tbaa !11
  %29 = call i32 @test_ptr(ptr noundef @.str.11, i32 noundef 198, ptr noundef @.str.26, ptr noundef %28)
  %30 = icmp ne i32 %29, 0
  br i1 %30, label %31, label %88

31:                                               ; preds = %27
  %32 = load ptr, ptr %4, align 8, !tbaa !8
  %33 = call i32 @BN_set_word(ptr noundef %32, i64 noundef 1)
  %34 = icmp ne i32 %33, 0
  %35 = zext i1 %34 to i32
  %36 = call i32 @test_true(ptr noundef @.str.11, i32 noundef 200, ptr noundef @.str.37, i32 noundef %35)
  %37 = icmp ne i32 %36, 0
  br i1 %37, label %38, label %88

38:                                               ; preds = %31
  %39 = load ptr, ptr %5, align 8, !tbaa !8
  %40 = load ptr, ptr %4, align 8, !tbaa !8
  %41 = load ptr, ptr %2, align 8, !tbaa !11
  %42 = call i32 @ossl_rsa_check_prime_factor(ptr noundef %39, ptr noundef %40, i32 noundef 72, ptr noundef %41)
  %43 = icmp ne i32 %42, 0
  %44 = zext i1 %43 to i32
  %45 = call i32 @test_false(ptr noundef @.str.11, i32 noundef 201, ptr noundef @.str.38, i32 noundef %44)
  %46 = icmp ne i32 %45, 0
  br i1 %46, label %47, label %88

47:                                               ; preds = %38
  %48 = load ptr, ptr %6, align 8, !tbaa !8
  %49 = load ptr, ptr %4, align 8, !tbaa !8
  %50 = load ptr, ptr %2, align 8, !tbaa !11
  %51 = call i32 @ossl_rsa_check_prime_factor(ptr noundef %48, ptr noundef %49, i32 noundef 72, ptr noundef %50)
  %52 = icmp ne i32 %51, 0
  %53 = zext i1 %52 to i32
  %54 = call i32 @test_true(ptr noundef @.str.11, i32 noundef 203, ptr noundef @.str.39, i32 noundef %53)
  %55 = icmp ne i32 %54, 0
  br i1 %55, label %56, label %88

56:                                               ; preds = %47
  %57 = load ptr, ptr %4, align 8, !tbaa !8
  %58 = call i32 @BN_set_word(ptr noundef %57, i64 noundef 2)
  %59 = icmp ne i32 %58, 0
  %60 = zext i1 %59 to i32
  %61 = call i32 @test_true(ptr noundef @.str.11, i32 noundef 205, ptr noundef @.str.40, i32 noundef %60)
  %62 = icmp ne i32 %61, 0
  br i1 %62, label %63, label %88

63:                                               ; preds = %56
  %64 = load ptr, ptr %3, align 8, !tbaa !8
  %65 = load ptr, ptr %4, align 8, !tbaa !8
  %66 = load ptr, ptr %2, align 8, !tbaa !11
  %67 = call i32 @ossl_rsa_check_prime_factor(ptr noundef %64, ptr noundef %65, i32 noundef 72, ptr noundef %66)
  %68 = icmp ne i32 %67, 0
  %69 = zext i1 %68 to i32
  %70 = call i32 @test_false(ptr noundef @.str.11, i32 noundef 206, ptr noundef @.str.41, i32 noundef %69)
  %71 = icmp ne i32 %70, 0
  br i1 %71, label %72, label %88

72:                                               ; preds = %63
  %73 = load ptr, ptr %4, align 8, !tbaa !8
  %74 = call i32 @BN_set_word(ptr noundef %73, i64 noundef 1)
  %75 = icmp ne i32 %74, 0
  %76 = zext i1 %75 to i32
  %77 = call i32 @test_true(ptr noundef @.str.11, i32 noundef 208, ptr noundef @.str.37, i32 noundef %76)
  %78 = icmp ne i32 %77, 0
  br i1 %78, label %79, label %88

79:                                               ; preds = %72
  %80 = load ptr, ptr %7, align 8, !tbaa !8
  %81 = load ptr, ptr %4, align 8, !tbaa !8
  %82 = load ptr, ptr %2, align 8, !tbaa !11
  %83 = call i32 @ossl_rsa_check_prime_factor(ptr noundef %80, ptr noundef %81, i32 noundef 72, ptr noundef %82)
  %84 = icmp ne i32 %83, 0
  %85 = zext i1 %84 to i32
  %86 = call i32 @test_false(ptr noundef @.str.11, i32 noundef 209, ptr noundef @.str.42, i32 noundef %85)
  %87 = icmp ne i32 %86, 0
  br label %88

88:                                               ; preds = %79, %72, %63, %56, %47, %38, %31, %27, %23, %19, %15, %11, %0
  %89 = phi i1 [ false, %72 ], [ false, %63 ], [ false, %56 ], [ false, %47 ], [ false, %38 ], [ false, %31 ], [ false, %27 ], [ false, %23 ], [ false, %19 ], [ false, %15 ], [ false, %11 ], [ false, %0 ], [ %87, %79 ]
  %90 = zext i1 %89 to i32
  store i32 %90, ptr %1, align 4, !tbaa !4
  %91 = load ptr, ptr %7, align 8, !tbaa !8
  call void @BN_free(ptr noundef %91)
  %92 = load ptr, ptr %6, align 8, !tbaa !8
  call void @BN_free(ptr noundef %92)
  %93 = load ptr, ptr %5, align 8, !tbaa !8
  call void @BN_free(ptr noundef %93)
  %94 = load ptr, ptr %4, align 8, !tbaa !8
  call void @BN_free(ptr noundef %94)
  %95 = load ptr, ptr %3, align 8, !tbaa !8
  call void @BN_free(ptr noundef %95)
  %96 = load ptr, ptr %2, align 8, !tbaa !11
  call void @BN_CTX_free(ptr noundef %96)
  %97 = load i32, ptr %1, align 4, !tbaa !4
  call void @llvm.lifetime.end.p0(i64 8, ptr %7) #3
  call void @llvm.lifetime.end.p0(i64 8, ptr %6) #3
  call void @llvm.lifetime.end.p0(i64 8, ptr %5) #3
  call void @llvm.lifetime.end.p0(i64 8, ptr %4) #3
  call void @llvm.lifetime.end.p0(i64 8, ptr %3) #3
  call void @llvm.lifetime.end.p0(i64 8, ptr %2) #3
  call void @llvm.lifetime.end.p0(i64 4, ptr %1) #3
  ret i32 %97
}