; Function Attrs: nounwind uwtable
define internal range(i32 0, 2) i32 @test_check_prime_factor() #0 {
  %1 = tail call ptr @BN_new() #2
  %2 = tail call i32 @test_ptr(ptr noundef nonnull @.str.11, i32 noundef 193, ptr noundef nonnull @.str.21, ptr noundef %1) #2
  %.not = icmp eq i32 %2, 0
  br i1 %.not, label %61, label %3

3:                                                ; preds = %0
  %4 = tail call ptr @BN_new() #2
  %.not.i = icmp eq ptr %4, null
  br i1 %.not.i, label %bn_load_new.exit, label %5

5:                                                ; preds = %3
  %6 = tail call ptr @BN_bin2bn(ptr noundef nonnull @test_check_prime_factor.p1, i32 noundef 5, ptr noundef nonnull %4) #2
  br label %bn_load_new.exit

bn_load_new.exit:                                 ; preds = %3, %5
  %7 = tail call i32 @test_ptr(ptr noundef nonnull @.str.11, i32 noundef 194, ptr noundef nonnull @.str.22, ptr noundef %4) #2
  %.not25 = icmp eq i32 %7, 0
  br i1 %.not25, label %61, label %8

8:                                                ; preds = %bn_load_new.exit
  %9 = tail call ptr @BN_new() #2
  %.not.i36 = icmp eq ptr %9, null
  br i1 %.not.i36, label %bn_load_new.exit37, label %10

10:                                               ; preds = %8
  %11 = tail call ptr @BN_bin2bn(ptr noundef nonnull @test_check_prime_factor.p2, i32 noundef 5, ptr noundef nonnull %9) #2
  br label %bn_load_new.exit37

bn_load_new.exit37:                               ; preds = %8, %10
  %12 = tail call i32 @test_ptr(ptr noundef nonnull @.str.11, i32 noundef 195, ptr noundef nonnull @.str.23, ptr noundef %9) #2
  %.not26 = icmp eq i32 %12, 0
  br i1 %.not26, label %61, label %13

13:                                               ; preds = %bn_load_new.exit37
  %14 = tail call ptr @BN_new() #2
  %.not.i38 = icmp eq ptr %14, null
  br i1 %.not.i38, label %bn_load_new.exit39, label %15

15:                                               ; preds = %13
  %16 = tail call ptr @BN_bin2bn(ptr noundef nonnull @test_check_prime_factor.p3, i32 noundef 5, ptr noundef nonnull %14) #2
  br label %bn_load_new.exit39

bn_load_new.exit39:                               ; preds = %13, %15
  %17 = tail call i32 @test_ptr(ptr noundef nonnull @.str.11, i32 noundef 196, ptr noundef nonnull @.str.24, ptr noundef %14) #2
  %.not27 = icmp eq i32 %17, 0
  br i1 %.not27, label %61, label %18

18:                                               ; preds = %bn_load_new.exit39
  %19 = tail call ptr @BN_new() #2
  %20 = tail call i32 @test_ptr(ptr noundef nonnull @.str.11, i32 noundef 197, ptr noundef nonnull @.str.12, ptr noundef %19) #2
  %.not28 = icmp eq i32 %20, 0
  br i1 %.not28, label %61, label %21

21:                                               ; preds = %18
  %22 = tail call ptr @BN_CTX_new() #2
  %23 = tail call i32 @test_ptr(ptr noundef nonnull @.str.11, i32 noundef 198, ptr noundef nonnull @.str.26, ptr noundef %22) #2
  %.not29 = icmp eq i32 %23, 0
  br i1 %.not29, label %61, label %24

24:                                               ; preds = %21
  %25 = tail call i32 @BN_set_word(ptr noundef %19, i64 noundef 1) #2
  %26 = icmp ne i32 %25, 0
  %27 = zext i1 %26 to i32
  %28 = tail call i32 @test_true(ptr noundef nonnull @.str.11, i32 noundef 200, ptr noundef nonnull @.str.37, i32 noundef %27) #2
  %.not30 = icmp eq i32 %28, 0
  br i1 %.not30, label %61, label %29

29:                                               ; preds = %24
  %30 = tail call i32 @ossl_rsa_check_prime_factor(ptr noundef %4, ptr noundef %19, i32 noundef 72, ptr noundef %22) #2
  %31 = icmp ne i32 %30, 0
  %32 = zext i1 %31 to i32
  %33 = tail call i32 @test_false(ptr noundef nonnull @.str.11, i32 noundef 201, ptr noundef nonnull @.str.38, i32 noundef %32) #2
  %.not31 = icmp eq i32 %33, 0
  br i1 %.not31, label %61, label %34

34:                                               ; preds = %29
  %35 = tail call i32 @ossl_rsa_check_prime_factor(ptr noundef %9, ptr noundef %19, i32 noundef 72, ptr noundef %22) #2
  %36 = icmp ne i32 %35, 0
  %37 = zext i1 %36 to i32
  %38 = tail call i32 @test_true(ptr noundef nonnull @.str.11, i32 noundef 203, ptr noundef nonnull @.str.39, i32 noundef %37) #2
  %.not32 = icmp eq i32 %38, 0
  br i1 %.not32, label %61, label %39

39:                                               ; preds = %34
  %40 = tail call i32 @BN_set_word(ptr noundef %19, i64 noundef 2) #2
  %41 = icmp ne i32 %40, 0
  %42 = zext i1 %41 to i32
  %43 = tail call i32 @test_true(ptr noundef nonnull @.str.11, i32 noundef 205, ptr noundef nonnull @.str.40, i32 noundef %42) #2
  %.not33 = icmp eq i32 %43, 0
  br i1 %.not33, label %61, label %44

44:                                               ; preds = %39
  %45 = tail call i32 @ossl_rsa_check_prime_factor(ptr noundef %1, ptr noundef %19, i32 noundef 72, ptr noundef %22) #2
  %46 = icmp ne i32 %45, 0
  %47 = zext i1 %46 to i32
  %48 = tail call i32 @test_false(ptr noundef nonnull @.str.11, i32 noundef 206, ptr noundef nonnull @.str.41, i32 noundef %47) #2
  %.not34 = icmp eq i32 %48, 0
  br i1 %.not34, label %61, label %49

49:                                               ; preds = %44
  %50 = tail call i32 @BN_set_word(ptr noundef %19, i64 noundef 1) #2
  %51 = icmp ne i32 %50, 0
  %52 = zext i1 %51 to i32
  %53 = tail call i32 @test_true(ptr noundef nonnull @.str.11, i32 noundef 208, ptr noundef nonnull @.str.37, i32 noundef %52) #2
  %.not35 = icmp eq i32 %53, 0
  br i1 %.not35, label %61, label %54

54:                                               ; preds = %49
  %55 = tail call i32 @ossl_rsa_check_prime_factor(ptr noundef %14, ptr noundef %19, i32 noundef 72, ptr noundef %22) #2
  %56 = icmp ne i32 %55, 0
  %57 = zext i1 %56 to i32
  %58 = tail call i32 @test_false(ptr noundef nonnull @.str.11, i32 noundef 209, ptr noundef nonnull @.str.42, i32 noundef %57) #2
  %59 = icmp ne i32 %58, 0
  %60 = zext i1 %59 to i32
  br label %61

61:                                               ; preds = %54, %49, %44, %39, %34, %29, %24, %21, %18, %bn_load_new.exit39, %bn_load_new.exit37, %bn_load_new.exit, %0
  %.024 = phi ptr [ %22, %54 ], [ %22, %49 ], [ %22, %44 ], [ %22, %39 ], [ %22, %34 ], [ %22, %29 ], [ %22, %24 ], [ %22, %21 ], [ null, %18 ], [ null, %bn_load_new.exit39 ], [ null, %bn_load_new.exit37 ], [ null, %bn_load_new.exit ], [ null, %0 ]
  %.023 = phi ptr [ %19, %54 ], [ %19, %49 ], [ %19, %44 ], [ %19, %39 ], [ %19, %34 ], [ %19, %29 ], [ %19, %24 ], [ %19, %21 ], [ %19, %18 ], [ null, %bn_load_new.exit39 ], [ null, %bn_load_new.exit37 ], [ null, %bn_load_new.exit ], [ null, %0 ]
  %.022 = phi ptr [ %4, %54 ], [ %4, %49 ], [ %4, %44 ], [ %4, %39 ], [ %4, %34 ], [ %4, %29 ], [ %4, %24 ], [ %4, %21 ], [ %4, %18 ], [ %4, %bn_load_new.exit39 ], [ %4, %bn_load_new.exit37 ], [ %4, %bn_load_new.exit ], [ null, %0 ]
  %.021 = phi ptr [ %9, %54 ], [ %9, %49 ], [ %9, %44 ], [ %9, %39 ], [ %9, %34 ], [ %9, %29 ], [ %9, %24 ], [ %9, %21 ], [ %9, %18 ], [ %9, %bn_load_new.exit39 ], [ %9, %bn_load_new.exit37 ], [ null, %bn_load_new.exit ], [ null, %0 ]
  %.0 = phi ptr [ %14, %54 ], [ %14, %49 ], [ %14, %44 ], [ %14, %39 ], [ %14, %34 ], [ %14, %29 ], [ %14, %24 ], [ %14, %21 ], [ %14, %18 ], [ %14, %bn_load_new.exit39 ], [ null, %bn_load_new.exit37 ], [ null, %bn_load_new.exit ], [ null, %0 ]
  %62 = phi i32 [ %60, %54 ], [ 0, %49 ], [ 0, %44 ], [ 0, %39 ], [ 0, %34 ], [ 0, %29 ], [ 0, %24 ], [ 0, %21 ], [ 0, %18 ], [ 0, %bn_load_new.exit39 ], [ 0, %bn_load_new.exit37 ], [ 0, %bn_load_new.exit ], [ 0, %0 ]
  tail call void @BN_free(ptr noundef %.0) #2
  tail call void @BN_free(ptr noundef %.021) #2
  tail call void @BN_free(ptr noundef %.022) #2
  tail call void @BN_free(ptr noundef %.023) #2
  tail call void @BN_free(ptr noundef %1) #2
  tail call void @BN_CTX_free(ptr noundef %.024) #2
  ret i32 %62
}